Certificate:
    Data:
        Version: 3 (0x2)
        Serial Number: 1 (0x1)
        Signature Algorithm: md5WithRSAEncryption
        Issuer: CN=My Test CA, ST=HZ, C=CN/emailAddress=test@cert.com, O=Root Certification Authority
        Validity
            Not Before: May  4 02:49:20 2015 GMT
            Not After : May  3 02:49:20 2016 GMT
        Subject: CN=jayson.huang, ST=GD, C=CN/emailAddress=jayson.hjs@gmail.com, O=SCUT, OU=Information Security
        Subject Public Key Info:
            Public Key Algorithm: rsaEncryption
            RSA Public Key: (1024 bit)
                Modulus (1024 bit):
                    00:d3:83:f8:fa:08:3f:a6:6c:db:7d:0d:c3:48:59:
                    62:e4:11:db:04:af:75:f1:2a:7f:c0:2f:c1:54:5a:
                    d3:87:ec:d4:f1:e6:cc:e9:a1:3e:5f:5d:06:eb:76:
                    80:4e:59:34:39:08:51:91:26:af:53:f9:db:2e:9c:
                    fe:70:2c:ce:c8:a1:f7:17:18:28:0b:6c:b0:ef:57:
                    22:64:cf:f5:15:a0:ac:eb:f1:5d:1f:d8:1b:93:c8:
                    b0:23:57:07:91:7f:78:df:41:b7:94:f0:5e:f3:3a:
                    31:ee:f3:6e:45:8d:7d:cd:59:80:db:80:57:89:ce:
                    d3:05:6b:95:ae:fb:08:a9:47
                Exponent: 65537 (0x10001)
        X509v3 extensions:
            X509v3 Basic Constraints: 
                CA:FALSE
    Signature Algorithm: md5WithRSAEncryption
        11:25:0a:e8:4f:c6:26:17:db:75:4a:03:de:d0:46:5a:e6:32:
        14:96:6b:bf:90:a7:58:e7:2e:81:5c:2e:98:69:4c:c1:da:9e:
        d2:db:58:d4:c9:d7:5c:ef:9d:20:e1:e7:ef:06:09:48:23:35:
        d4:35:94:71:85:d3:c6:e9:7a:22:6a:52:76:05:5d:24:a7:fe:
        b5:7a:ad:8a:34:62:e2:96:1d:b8:36:34:ab:4f:ce:65:e3:84:
        97:e1:0e:47:c7:9e:2a:a9:2c:88:d7:d0:ec:42:d4:c1:60:79:
        48:e7:30:b4:6c:69:68:71:c7:b4:59:50:d4:99:9a:de:21:f1:
        67:9f:91:a9:a3:65:fd:69:26:c3:7d:d0:29:79:ae:be:da:59:
        71:35:7f:4c:d6:23:63:44:4f:89:5e:5a:6e:34:c8:99:21:d4:
        9b:f8:d8:e0:8b:00:a4:15:04:6f:82:78:0c:d9:92:de:5f:7a:
        98:e4:4f:5c:5d:fd:13:aa:5b:04:6a:79:fc:cb:06:2f:d5:6c:
        4f:5a:af:8a:4f:07:94:f0:5a:9e:ec:79:22:80:49:ae:c8:03:
        34:0c:d1:dc:8f:3d:b1:b0:ca:3e:f2:d9:a8:4a:59:3e:db:03:
        ae:e4:f2:37:ad:d4:83:a4:95:6a:61:9f:1c:00:f3:eb:8f:f7:
        cc:41:df:6a
-----BEGIN CERTIFICATE-----
MIIC/TCCAeWgAwIBAgIBATANBgkqhkiG9w0BAQQFADB0MRMwEQYDVQQDDApNeSBU
ZXN0IENBMQswCQYDVQQIDAJIWjELMAkGA1UEBhMCQ04xHDAaBgkqhkiG9w0BCQEW
DXRlc3RAY2VydC5jb20xJTAjBgNVBAoMHFJvb3QgQ2VydGlmaWNhdGlvbiBBdXRo
b3JpdHkwHhcNMTUwNTA0MDI0OTIwWhcNMTYwNTAzMDI0OTIwWjCBhDEVMBMGA1UE
AxMMamF5c29uLmh1YW5nMQswCQYDVQQIEwJHRDELMAkGA1UEBhMCQ04xIzAhBgkq
hkiG9w0BCQEWFGpheXNvbi5oanNAZ21haWwuY29tMQ0wCwYDVQQKEwRTQ1VUMR0w
GwYDVQQLExRJbmZvcm1hdGlvbiBTZWN1cml0eTCBnzANBgkqhkiG9w0BAQEFAAOB
jQAwgYkCgYEA04P4+gg/pmzbfQ3DSFli5BHbBK918Sp/wC/BVFrTh+zU8ebM6aE+
X10G63aATlk0OQhRkSavU/nbLpz+cCzOyKH3FxgoC2yw71ciZM/1FaCs6/FdH9gb
k8iwI1cHkX9430G3lPBe8zox7vNuRY19zVmA24BXic7TBWuVrvsIqUcCAwEAAaMN
MAswCQYDVR0TBAIwADANBgkqhkiG9w0BAQQFAAOCAQEAESUK6E/GJhfbdUoD3tBG
WuYyFJZrv5CnWOcugVwumGlMwdqe0ttY1MnXXO+dIOHn7wYJSCM11DWUcYXTxul6
ImpSdgVdJKf+tXqtijRi4pYduDY0q0/OZeOEl+EOR8eeKqksiNfQ7ELUwWB5SOcw
tGxpaHHHtFlQ1Jma3iHxZ5+RqaNl/Wkmw33QKXmuvtpZcTV/TNYjY0RPiV5abjTI
mSHUm/jY4IsApBUEb4J4DNmS3l96mORPXF39E6pbBGp5/MsGL9VsT1qvik8HlPBa
nux5IoBJrsgDNAzR3I89sbDKPvLZqEpZPtsDruTyN63Ug6SVamGfHADz64/3zEHf
ag==
-----END CERTIFICATE-----
